; Function Attrs: nounwind sspstrong uwtable
define internal void @ripper_parser_free2(ptr noundef %0) #0 {
  %2 = load ptr, ptr %0, align 8, !tbaa !18
  %.not = icmp eq ptr %2, null
  br i1 %.not, label %4, label %3

3:                                                ; preds = %1
  tail call void @ripper_parser_free(ptr noundef nonnull %2) #5
  br label %4

4:                                                ; preds = %3, %1
  tail call void @ruby_xfree(ptr noundef nonnull %0) #5
  ret void
}